target datalayout = "e-m:e-p270:32:32-p271:32:32-p272:64:64-i64:64-i128:128-f80:128-n8:16:32:64-S128"
target triple = "x86_64-pc-linux-gnu"

%struct._generic_SUNAdaptController = type { ptr, ptr, ptr }
%struct._ARKUserControlContent = type { double, double, double, double, ptr, ptr, ptr }

; Function Attrs: nounwind uwtable
define i32 @SUNAdaptController_Reset_ARKUserControl(ptr noundef %0) #0 {
  %2 = alloca ptr, align 8
  store ptr %0, ptr %2, align 8, !tbaa !9
  %3 = load ptr, ptr %2, align 8, !tbaa !9
  %4 = getelementptr inbounds nuw %struct._generic_SUNAdaptController, ptr %3, i32 0, i32 0
  %5 = load ptr, ptr %4, align 8, !tbaa !23
  %6 = getelementptr inbounds nuw %struct._ARKUserControlContent, ptr %5, i32 0, i32 2
  store double 1.000000e+00, ptr %6, align 8, !tbaa !47
  %7 = load ptr, ptr %2, align 8, !tbaa !9
  %8 = getelementptr inbounds nuw %struct._generic_SUNAdaptController, ptr %7, i32 0, i32 0
  %9 = load ptr, ptr %8, align 8, !tbaa !23
  %10 = getelementptr inbounds nuw %struct._ARKUserControlContent, ptr %9, i32 0, i32 3
  store double 1.000000e+00, ptr %10, align 8, !tbaa !48
  %11 = load ptr, ptr %2, align 8, !tbaa !9
  %12 = getelementptr inbounds nuw %struct._generic_SUNAdaptController, ptr %11, i32 0, i32 0
  %13 = load ptr, ptr %12, align 8, !tbaa !23
  %14 = getelementptr inbounds nuw %struct._ARKUserControlContent, ptr %13, i32 0, i32 0
  store double 0.000000e+00, ptr %14, align 8, !tbaa !45
  %15 = load ptr, ptr %2, align 8, !tbaa !9
  %16 = getelementptr inbounds nuw %struct._generic_SUNAdaptController, ptr %15, i32 0, i32 0
  %17 = load ptr, ptr %16, align 8, !tbaa !23
  %18 = getelementptr inbounds nuw %struct._ARKUserControlContent, ptr %17, i32 0, i32 1
  store double 0.000000e+00, ptr %18, align 8, !tbaa !46
  ret i32 0
}