; Function Attrs: mustprogress nofree norecurse nosync nounwind willreturn memory(write, argmem: readwrite, inaccessiblemem: none) uwtable
define noundef i32 @SUNAdaptController_Reset_ARKUserControl(ptr noundef readonly captures(none) %0) #3 {
  %2 = load ptr, ptr %0, align 8, !tbaa !17
  %3 = getelementptr inbounds nuw i8, ptr %2, i64 16
  store double 1.000000e+00, ptr %3, align 8, !tbaa !24
  %4 = getelementptr inbounds nuw i8, ptr %2, i64 24
  store double 1.000000e+00, ptr %4, align 8, !tbaa !25
  tail call void @llvm.memset.p0.i64(ptr noundef nonnull align 8 dereferenceable(16) %2, i8 0, i64 16, i1 false)
  ret i32 0
}